target datalayout = "e-m:e-p270:32:32-p271:32:32-p272:64:64-i64:64-i128:128-f80:128-n8:16:32:64-S128"
target triple = "x86_64-pc-linux-gnu"

%struct.PJconsts = type { ptr, ptr, ptr, ptr, ptr, ptr, ptr, ptr, ptr, ptr, ptr, ptr, i32, ptr, ptr, ptr, ptr, ptr, ptr, ptr, ptr, double, double, double, double, double, double, double, double, double, double, double, double, double, double, double, double, double, double, double, double, double, double, i32, i32, i32, i32, i32, i32, i32, i32, i32, i32, i32, ptr, ptr, ptr, ptr, ptr, ptr, double, double, double, double, double, double, double, double, double, double, double, i32, [7 x double], i32, ptr, ptr, double, double, i32, [4 x i8], %"class.std::shared_ptr", i8, double, i8, %"class.std::__cxx11::basic_string", %"class.std::__cxx11::basic_string", %"class.std::__cxx11::basic_string", i8, %"class.std::vector", i32, %"class.std::vector.3", i32, i8, i8, i8, ptr }
%"class.std::shared_ptr" = type { %"class.std::__shared_ptr" }
%"class.std::__shared_ptr" = type { ptr, %"class.std::__shared_count" }
%"class.std::__shared_count" = type { ptr }
%"class.std::__cxx11::basic_string" = type { %"struct.std::__cxx11::basic_string<char>::_Alloc_hider", i64, %union.anon }
%"struct.std::__cxx11::basic_string<char>::_Alloc_hider" = type { ptr }
%union.anon = type { i64, [8 x i8] }
%"class.std::vector" = type { %"struct.std::_Vector_base" }
%"struct.std::_Vector_base" = type { %"struct.std::_Vector_base<osgeo::proj::operation::GridDescription, std::allocator<osgeo::proj::operation::GridDescription>>::_Vector_impl" }
%"struct.std::_Vector_base<osgeo::proj::operation::GridDescription, std::allocator<osgeo::proj::operation::GridDescription>>::_Vector_impl" = type { %"struct.std::_Vector_base<osgeo::proj::operation::GridDescription, std::allocator<osgeo::proj::operation::GridDescription>>::_Vector_impl_data" }
%"struct.std::_Vector_base<osgeo::proj::operation::GridDescription, std::allocator<osgeo::proj::operation::GridDescription>>::_Vector_impl_data" = type { ptr, ptr, ptr }
%"class.std::vector.3" = type { %"struct.std::_Vector_base.4" }
%"struct.std::_Vector_base.4" = type { %"struct.std::_Vector_base<PJCoordOperation, std::allocator<PJCoordOperation>>::_Vector_impl" }
%"struct.std::_Vector_base<PJCoordOperation, std::allocator<PJCoordOperation>>::_Vector_impl" = type { %"struct.std::_Vector_base<PJCoordOperation, std::allocator<PJCoordOperation>>::_Vector_impl_data" }
%"struct.std::_Vector_base<PJCoordOperation, std::allocator<PJCoordOperation>>::_Vector_impl_data" = type { ptr, ptr, ptr }
%"struct.(anonymous namespace)::pj_lcc_data" = type { double, double, double, double, double }
%struct.PJ_LP = type { double, double }
%struct.PJ_XY = type { double, double }

; Function Attrs: mustprogress uwtable
define internal { double, double } @_ZL13lcc_e_inverse5PJ_XYP8PJconsts(double %0, double %1, ptr noundef %2) #0 {
  %4 = alloca %struct.PJ_LP, align 8
  %5 = alloca %struct.PJ_XY, align 8
  %6 = alloca ptr, align 8
  %7 = alloca ptr, align 8
  %8 = alloca double, align 8
  %9 = alloca i32, align 4
  %10 = getelementptr inbounds nuw { double, double }, ptr %5, i32 0, i32 0
  store double %0, ptr %10, align 8
  %11 = getelementptr inbounds nuw { double, double }, ptr %5, i32 0, i32 1
  store double %1, ptr %11, align 8
  store ptr %2, ptr %6, align 8, !tbaa !3
  call void @llvm.memset.p0.i64(ptr align 8 %4, i8 0, i64 16, i1 false)
  call void @llvm.lifetime.start.p0(i64 8, ptr %7) #7
  %12 = load ptr, ptr %6, align 8, !tbaa !3
  %13 = getelementptr inbounds nuw %struct.PJconsts, ptr %12, i32 0, i32 11
  %14 = load ptr, ptr %13, align 8, !tbaa !43
  store ptr %14, ptr %7, align 8, !tbaa !41
  call void @llvm.lifetime.start.p0(i64 8, ptr %8) #7
  %15 = load ptr, ptr %6, align 8, !tbaa !3
  %16 = getelementptr inbounds nuw %struct.PJconsts, ptr %15, i32 0, i32 66
  %17 = load double, ptr %16, align 8, !tbaa !60
  %18 = getelementptr inbounds nuw %struct.PJ_XY, ptr %5, i32 0, i32 0
  %19 = load double, ptr %18, align 8, !tbaa !61
  %20 = fdiv double %19, %17
  store double %20, ptr %18, align 8, !tbaa !61
  %21 = load ptr, ptr %6, align 8, !tbaa !3
  %22 = getelementptr inbounds nuw %struct.PJconsts, ptr %21, i32 0, i32 66
  %23 = load double, ptr %22, align 8, !tbaa !60
  %24 = getelementptr inbounds nuw %struct.PJ_XY, ptr %5, i32 0, i32 1
  %25 = load double, ptr %24, align 8, !tbaa !63
  %26 = fdiv double %25, %23
  store double %26, ptr %24, align 8, !tbaa !63
  %27 = load ptr, ptr %7, align 8, !tbaa !41
  %28 = getelementptr inbounds nuw %"struct.(anonymous namespace)::pj_lcc_data", ptr %27, i32 0, i32 3
  %29 = load double, ptr %28, align 8, !tbaa !56
  %30 = getelementptr inbounds nuw %struct.PJ_XY, ptr %5, i32 0, i32 1
  %31 = load double, ptr %30, align 8, !tbaa !63
  %32 = fsub double %29, %31
  %33 = getelementptr inbounds nuw %struct.PJ_XY, ptr %5, i32 0, i32 1
  store double %32, ptr %33, align 8, !tbaa !63
  %34 = getelementptr inbounds nuw %struct.PJ_XY, ptr %5, i32 0, i32 0
  %35 = load double, ptr %34, align 8, !tbaa !61
  %36 = getelementptr inbounds nuw %struct.PJ_XY, ptr %5, i32 0, i32 1
  %37 = load double, ptr %36, align 8, !tbaa !63
  %38 = call double @hypot(double noundef %35, double noundef %37) #7, !tbaa !51
  store double %38, ptr %8, align 8, !tbaa !52
  %39 = load double, ptr %8, align 8, !tbaa !52
  %40 = fcmp une double %39, 0.000000e+00
  br i1 %40, label %41, label %113

41:                                               ; preds = %3
  %42 = load ptr, ptr %7, align 8, !tbaa !41
  %43 = getelementptr inbounds nuw %"struct.(anonymous namespace)::pj_lcc_data", ptr %42, i32 0, i32 2
  %44 = load double, ptr %43, align 8, !tbaa !53
  %45 = fcmp olt double %44, 0.000000e+00
  br i1 %45, label %46, label %57

46:                                               ; preds = %41
  %47 = load double, ptr %8, align 8, !tbaa !52
  %48 = fneg double %47
  store double %48, ptr %8, align 8, !tbaa !52
  %49 = getelementptr inbounds nuw %struct.PJ_XY, ptr %5, i32 0, i32 0
  %50 = load double, ptr %49, align 8, !tbaa !61
  %51 = fneg double %50
  %52 = getelementptr inbounds nuw %struct.PJ_XY, ptr %5, i32 0, i32 0
  store double %51, ptr %52, align 8, !tbaa !61
  %53 = getelementptr inbounds nuw %struct.PJ_XY, ptr %5, i32 0, i32 1
  %54 = load double, ptr %53, align 8, !tbaa !63
  %55 = fneg double %54
  %56 = getelementptr inbounds nuw %struct.PJ_XY, ptr %5, i32 0, i32 1
  store double %55, ptr %56, align 8, !tbaa !63
  br label %57

57:                                               ; preds = %46, %41
  %58 = load ptr, ptr %6, align 8, !tbaa !3
  %59 = getelementptr inbounds nuw %struct.PJconsts, ptr %58, i32 0, i32 27
  %60 = load double, ptr %59, align 8, !tbaa !54
  %61 = fcmp une double %60, 0.000000e+00
  br i1 %61, label %62, label %88

62:                                               ; preds = %57
  %63 = load ptr, ptr %6, align 8, !tbaa !3
  %64 = getelementptr inbounds nuw %struct.PJconsts, ptr %63, i32 0, i32 0
  %65 = load ptr, ptr %64, align 8, !tbaa !44
  %66 = load double, ptr %8, align 8, !tbaa !52
  %67 = load ptr, ptr %7, align 8, !tbaa !41
  %68 = getelementptr inbounds nuw %"struct.(anonymous namespace)::pj_lcc_data", ptr %67, i32 0, i32 4
  %69 = load double, ptr %68, align 8, !tbaa !57
  %70 = fdiv double %66, %69
  %71 = load ptr, ptr %7, align 8, !tbaa !41
  %72 = getelementptr inbounds nuw %"struct.(anonymous namespace)::pj_lcc_data", ptr %71, i32 0, i32 2
  %73 = load double, ptr %72, align 8, !tbaa !53
  %74 = fdiv double 1.000000e+00, %73
  %75 = call double @pow(double noundef %70, double noundef %74) #7, !tbaa !51
  %76 = load ptr, ptr %6, align 8, !tbaa !3
  %77 = getelementptr inbounds nuw %struct.PJconsts, ptr %76, i32 0, i32 26
  %78 = load double, ptr %77, align 8, !tbaa !55
  %79 = call noundef double @_Z7pj_phi2P6pj_ctxdd(ptr noundef %65, double noundef %75, double noundef %78)
  %80 = getelementptr inbounds nuw %struct.PJ_LP, ptr %4, i32 0, i32 1
  store double %79, ptr %80, align 8, !tbaa !64
  %81 = getelementptr inbounds nuw %struct.PJ_LP, ptr %4, i32 0, i32 1
  %82 = load double, ptr %81, align 8, !tbaa !64
  %83 = fcmp oeq double %82, 0x7FF0000000000000
  br i1 %83, label %84, label %87

84:                                               ; preds = %62
  %85 = load ptr, ptr %6, align 8, !tbaa !3
  %86 = call i32 @proj_errno_set(ptr noundef %85, i32 noundef 2050)
  store i32 1, ptr %9, align 4
  br label %122

87:                                               ; preds = %62
  br label %102

88:                                               ; preds = %57
  %89 = load ptr, ptr %7, align 8, !tbaa !41
  %90 = getelementptr inbounds nuw %"struct.(anonymous namespace)::pj_lcc_data", ptr %89, i32 0, i32 4
  %91 = load double, ptr %90, align 8, !tbaa !57
  %92 = load double, ptr %8, align 8, !tbaa !52
  %93 = fdiv double %91, %92
  %94 = load ptr, ptr %7, align 8, !tbaa !41
  %95 = getelementptr inbounds nuw %"struct.(anonymous namespace)::pj_lcc_data", ptr %94, i32 0, i32 2
  %96 = load double, ptr %95, align 8, !tbaa !53
  %97 = fdiv double 1.000000e+00, %96
  %98 = call double @pow(double noundef %93, double noundef %97) #7, !tbaa !51
  %99 = call double @atan(double noundef %98) #7, !tbaa !51
  %100 = call double @llvm.fmuladd.f64(double 2.000000e+00, double %99, double 0xBFF921FB54442D18)
  %101 = getelementptr inbounds nuw %struct.PJ_LP, ptr %4, i32 0, i32 1
  store double %100, ptr %101, align 8, !tbaa !64
  br label %102

102:                                              ; preds = %88, %87
  %103 = getelementptr inbounds nuw %struct.PJ_XY, ptr %5, i32 0, i32 0
  %104 = load double, ptr %103, align 8, !tbaa !61
  %105 = getelementptr inbounds nuw %struct.PJ_XY, ptr %5, i32 0, i32 1
  %106 = load double, ptr %105, align 8, !tbaa !63
  %107 = call double @atan2(double noundef %104, double noundef %106) #7, !tbaa !51
  %108 = load ptr, ptr %7, align 8, !tbaa !41
  %109 = getelementptr inbounds nuw %"struct.(anonymous namespace)::pj_lcc_data", ptr %108, i32 0, i32 2
  %110 = load double, ptr %109, align 8, !tbaa !53
  %111 = fdiv double %107, %110
  %112 = getelementptr inbounds nuw %struct.PJ_LP, ptr %4, i32 0, i32 0
  store double %111, ptr %112, align 8, !tbaa !66
  br label %121

113:                                              ; preds = %3
  %114 = getelementptr inbounds nuw %struct.PJ_LP, ptr %4, i32 0, i32 0
  store double 0.000000e+00, ptr %114, align 8, !tbaa !66
  %115 = load ptr, ptr %7, align 8, !tbaa !41
  %116 = getelementptr inbounds nuw %"struct.(anonymous namespace)::pj_lcc_data", ptr %115, i32 0, i32 2
  %117 = load double, ptr %116, align 8, !tbaa !53
  %118 = fcmp ogt double %117, 0.000000e+00
  %119 = select i1 %118, double 0x3FF921FB54442D18, double 0xBFF921FB54442D18
  %120 = getelementptr inbounds nuw %struct.PJ_LP, ptr %4, i32 0, i32 1
  store double %119, ptr %120, align 8, !tbaa !64
  br label %121

121:                                              ; preds = %113, %102
  store i32 1, ptr %9, align 4
  br label %122

122:                                              ; preds = %121, %84
  call void @llvm.lifetime.end.p0(i64 8, ptr %8) #7
  call void @llvm.lifetime.end.p0(i64 8, ptr %7) #7
  %123 = load { double, double }, ptr %4, align 8
  ret { double, double } %123
}