; Function Attrs: mustprogress uwtable
define internal { double, double } @_ZL13lcc_e_inverse5PJ_XYP8PJconsts(double %0, double %1, ptr noundef %2) #0 {
  %4 = getelementptr inbounds nuw i8, ptr %2, i64 88
  %5 = load ptr, ptr %4, align 8, !tbaa !40
  %6 = getelementptr inbounds nuw i8, ptr %2, i64 488
  %7 = load double, ptr %6, align 8, !tbaa !55
  %8 = fdiv double %0, %7
  %9 = fdiv double %1, %7
  %10 = getelementptr inbounds nuw i8, ptr %5, i64 24
  %11 = load double, ptr %10, align 8, !tbaa !51
  %12 = fsub double %11, %9
  %13 = tail call double @hypot(double noundef %8, double noundef %12) #6, !tbaa !47
  %14 = fcmp une double %13, 0.000000e+00
  %15 = getelementptr inbounds nuw i8, ptr %5, i64 16
  %16 = load double, ptr %15, align 8, !tbaa !48
  br i1 %14, label %17, label %50

17:                                               ; preds = %3
  %18 = fcmp olt double %16, 0.000000e+00
  %19 = fneg double %13
  %20 = fneg double %8
  %21 = fneg double %12
  %.sroa.7.0 = select i1 %18, double %21, double %12
  %.sroa.0.0 = select i1 %18, double %20, double %8
  %.0 = select i1 %18, double %19, double %13
  %22 = getelementptr inbounds nuw i8, ptr %2, i64 216
  %23 = load double, ptr %22, align 8, !tbaa !49
  %24 = fcmp une double %23, 0.000000e+00
  br i1 %24, label %25, label %38

25:                                               ; preds = %17
  %26 = load ptr, ptr %2, align 8, !tbaa !41
  %27 = getelementptr inbounds nuw i8, ptr %5, i64 32
  %28 = load double, ptr %27, align 8, !tbaa !52
  %29 = fdiv double %.0, %28
  %30 = fdiv double 1.000000e+00, %16
  %31 = tail call double @pow(double noundef %29, double noundef %30) #6, !tbaa !47
  %32 = getelementptr inbounds nuw i8, ptr %2, i64 208
  %33 = load double, ptr %32, align 8, !tbaa !50
  %34 = tail call noundef double @_Z7pj_phi2P6pj_ctxdd(ptr noundef %26, double noundef %31, double noundef %33)
  %35 = fcmp oeq double %34, 0x7FF0000000000000
  br i1 %35, label %36, label %._crit_edge

._crit_edge:                                      ; preds = %25
  %.pre = load double, ptr %15, align 8, !tbaa !48
  br label %46

36:                                               ; preds = %25
  %37 = tail call i32 @proj_errno_set(ptr noundef nonnull %2, i32 noundef 2050)
  br label %53

38:                                               ; preds = %17
  %39 = getelementptr inbounds nuw i8, ptr %5, i64 32
  %40 = load double, ptr %39, align 8, !tbaa !52
  %41 = fdiv double %40, %.0
  %42 = fdiv double 1.000000e+00, %16
  %43 = tail call double @pow(double noundef %41, double noundef %42) #6, !tbaa !47
  %44 = tail call double @atan(double noundef %43) #6, !tbaa !47
  %45 = tail call double @llvm.fmuladd.f64(double %44, double 2.000000e+00, double 0xBFF921FB54442D18)
  br label %46

46:                                               ; preds = %._crit_edge, %38
  %47 = phi double [ %.pre, %._crit_edge ], [ %16, %38 ]
  %.sroa.4.1 = phi double [ %34, %._crit_edge ], [ %45, %38 ]
  %48 = tail call double @atan2(double noundef %.sroa.0.0, double noundef %.sroa.7.0) #6, !tbaa !47
  %49 = fdiv double %48, %47
  br label %53

50:                                               ; preds = %3
  %51 = fcmp ogt double %16, 0.000000e+00
  %52 = select i1 %51, double 0x3FF921FB54442D18, double 0xBFF921FB54442D18
  br label %53

53:                                               ; preds = %46, %50, %36
  %.sroa.4.0 = phi double [ 0x7FF0000000000000, %36 ], [ %.sroa.4.1, %46 ], [ %52, %50 ]
  %.sroa.026.0 = phi double [ 0.000000e+00, %36 ], [ %49, %46 ], [ 0.000000e+00, %50 ]
  %.fca.0.insert = insertvalue { double, double } poison, double %.sroa.026.0, 0
  %.fca.1.insert = insertvalue { double, double } %.fca.0.insert, double %.sroa.4.0, 1
  ret { double, double } %.fca.1.insert
}